target datalayout = "e-m:e-p270:32:32-p271:32:32-p272:64:64-i64:64-i128:128-f80:128-n8:16:32:64-S128"
target triple = "x86_64-pc-linux-gnu"

%struct.AVBPrint = type { ptr, i32, i32, i32, [1 x i8], [1000 x i8] }

; Function Attrs: nounwind uwtable
define i32 @av_channel_name(ptr noundef %0, i64 noundef %1, i32 noundef %2) #0 {
  %4 = alloca i32, align 4
  %5 = alloca ptr, align 8
  %6 = alloca i64, align 8
  %7 = alloca i32, align 4
  %8 = alloca %struct.AVBPrint, align 8
  %9 = alloca i32, align 4
  store ptr %0, ptr %5, align 8, !tbaa !14
  store i64 %1, ptr %6, align 8, !tbaa !15
  store i32 %2, ptr %7, align 4, !tbaa !9
  call void @llvm.lifetime.start.p0(i64 1024, ptr %8) #11
  %10 = load ptr, ptr %5, align 8, !tbaa !14
  %11 = icmp ne ptr %10, null
  br i1 %11, label %16, label %12

12:                                               ; preds = %3
  %13 = load i64, ptr %6, align 8, !tbaa !15
  %14 = icmp ne i64 %13, 0
  br i1 %14, label %15, label %16

15:                                               ; preds = %12
  store i32 -22, ptr %4, align 4
  store i32 1, ptr %9, align 4
  br label %29

16:                                               ; preds = %12, %3
  %17 = load ptr, ptr %5, align 8, !tbaa !14
  %18 = load i64, ptr %6, align 8, !tbaa !15
  %19 = trunc i64 %18 to i32
  call void @av_bprint_init_for_buffer(ptr noundef %8, ptr noundef %17, i32 noundef %19)
  %20 = load i32, ptr %7, align 4, !tbaa !9
  call void @av_channel_name_bprint(ptr noundef %8, i32 noundef %20)
  %21 = getelementptr inbounds nuw %struct.AVBPrint, ptr %8, i32 0, i32 1
  %22 = load i32, ptr %21, align 8, !tbaa !17
  %23 = icmp uge i32 %22, 2147483647
  br i1 %23, label %24, label %25

24:                                               ; preds = %16
  store i32 -34, ptr %4, align 4
  store i32 1, ptr %9, align 4
  br label %29

25:                                               ; preds = %16
  %26 = getelementptr inbounds nuw %struct.AVBPrint, ptr %8, i32 0, i32 1
  %27 = load i32, ptr %26, align 8, !tbaa !17
  %28 = add i32 %27, 1
  store i32 %28, ptr %4, align 4
  store i32 1, ptr %9, align 4
  br label %29

29:                                               ; preds = %25, %24, %15
  call void @llvm.lifetime.end.p0(i64 1024, ptr %8) #11
  %30 = load i32, ptr %4, align 4
  ret i32 %30
}